; ModuleID = '22/665.c'
source_filename = "22/665.c"
target datalayout = "e-m:e-p270:32:32-p271:32:32-p272:64:64-i64:64-f80:128-n8:16:32:64-S128"
target triple = "x86_64-pc-linux-gnu"

@.str = private unnamed_addr constant [3 x i8] c"%d\00", align 1
@.str.1 = private unnamed_addr constant [3 x i8] c"%c\00", align 1
@.str.2 = private unnamed_addr constant [3 x i8] c"No\00", align 1

; Function Attrs: noinline nounwind uwtable
define dso_local i32 @main() #0 {
  %1 = alloca i32, align 4
  %2 = alloca [301 x i32], align 16
  %3 = alloca i32, align 4
  %4 = alloca i32, align 4
  %5 = alloca i32, align 4
  %6 = alloca i32, align 4
  %7 = alloca i8, align 1
  %8 = alloca i32, align 4
  store i32 0, i32* %1, align 4
  %9 = bitcast [301 x i32]* %2 to i8*
  call void @llvm.memset.p0i8.i64(i8* align 16 %9, i8 0, i64 1204, i1 false)
  store i32 0, i32* %4, align 4
  br label %10

10:                                               ; preds = %0, %21
  %11 = load i32, i32* %4, align 4
  %12 = add nsw i32 %11, 1
  store i32 %12, i32* %4, align 4
  %13 = sext i32 %11 to i64
  %14 = getelementptr inbounds [301 x i32], [301 x i32]* %2, i64 0, i64 %13
  %15 = call i32 (i8*, ...) @__isoc99_scanf(i8* getelementptr inbounds ([3 x i8], [3 x i8]* @.str, i64 0, i64 0), i32* %14)
  %16 = call i32 (i8*, ...) @__isoc99_scanf(i8* getelementptr inbounds ([3 x i8], [3 x i8]* @.str.1, i64 0, i64 0), i8* %7)
  %17 = load i8, i8* %7, align 1
  %18 = sext i8 %17 to i32
  %19 = icmp ne i32 %18, 44
  br i1 %19, label %20, label %21

20:                                               ; preds = %10
  br label %22

21:                                               ; preds = %10
  br label %10

22:                                               ; preds = %20
  store i32 0, i32* %3, align 4
  br label %23

23:                                               ; preds = %68, %22
  %24 = load i32, i32* %3, align 4
  %25 = load i32, i32* %4, align 4
  %26 = sub nsw i32 %25, 1
  %27 = icmp slt i32 %24, %26
  br i1 %27, label %28, label %71

28:                                               ; preds = %23
  %29 = load i32, i32* %3, align 4
  store i32 %29, i32* %6, align 4
  %30 = load i32, i32* %3, align 4
  %31 = add nsw i32 %30, 1
  store i32 %31, i32* %5, align 4
  br label %32

32:                                               ; preds = %49, %28
  %33 = load i32, i32* %5, align 4
  %34 = load i32, i32* %4, align 4
  %35 = icmp slt i32 %33, %34
  br i1 %35, label %36, label %52

36:                                               ; preds = %32
  %37 = load i32, i32* %5, align 4
  %38 = sext i32 %37 to i64
  %39 = getelementptr inbounds [301 x i32], [301 x i32]* %2, i64 0, i64 %38
  %40 = load i32, i32* %39, align 4
  %41 = load i32, i32* %6, align 4
  %42 = sext i32 %41 to i64
  %43 = getelementptr inbounds [301 x i32], [301 x i32]* %2, i64 0, i64 %42
  %44 = load i32, i32* %43, align 4
  %45 = icmp sgt i32 %40, %44
  br i1 %45, label %46, label %48

46:                                               ; preds = %36
  %47 = load i32, i32* %5, align 4
  store i32 %47, i32* %6, align 4
  br label %48

48:                                               ; preds = %46, %36
  br label %49

49:                                               ; preds = %48
  %50 = load i32, i32* %5, align 4
  %51 = add nsw i32 %50, 1
  store i32 %51, i32* %5, align 4
  br label %32

52:                                               ; preds = %32
  %53 = load i32, i32* %3, align 4
  %54 = sext i32 %53 to i64
  %55 = getelementptr inbounds [301 x i32], [301 x i32]* %2, i64 0, i64 %54
  %56 = load i32, i32* %55, align 4
  store i32 %56, i32* %8, align 4
  %57 = load i32, i32* %6, align 4
  %58 = sext i32 %57 to i64
  %59 = getelementptr inbounds [301 x i32], [301 x i32]* %2, i64 0, i64 %58
  %60 = load i32, i32* %59, align 4
  %61 = load i32, i32* %3, align 4
  %62 = sext i32 %61 to i64
  %63 = getelementptr inbounds [301 x i32], [301 x i32]* %2, i64 0, i64 %62
  store i32 %60, i32* %63, align 4
  %64 = load i32, i32* %8, align 4
  %65 = load i32, i32* %6, align 4
  %66 = sext i32 %65 to i64
  %67 = getelementptr inbounds [301 x i32], [301 x i32]* %2, i64 0, i64 %66
  store i32 %64, i32* %67, align 4
  br label %68

68:                                               ; preds = %52
  %69 = load i32, i32* %3, align 4
  %70 = add nsw i32 %69, 1
  store i32 %70, i32* %3, align 4
  br label %23

71:                                               ; preds = %23
  store i32 0, i32* %3, align 4
  br label %72

72:                                               ; preds = %86, %71
  %73 = load i32, i32* %3, align 4
  %74 = load i32, i32* %4, align 4
  %75 = icmp slt i32 %73, %74
  br i1 %75, label %76, label %84

76:                                               ; preds = %72
  %77 = load i32, i32* %3, align 4
  %78 = sext i32 %77 to i64
  %79 = getelementptr inbounds [301 x i32], [301 x i32]* %2, i64 0, i64 %78
  %80 = load i32, i32* %79, align 4
  %81 = getelementptr inbounds [301 x i32], [301 x i32]* %2, i64 0, i64 0
  %82 = load i32, i32* %81, align 16
  %83 = icmp eq i32 %80, %82
  br label %84

84:                                               ; preds = %76, %72
  %85 = phi i1 [ false, %72 ], [ %83, %76 ]
  br i1 %85, label %86, label %89

86:                                               ; preds = %84
  %87 = load i32, i32* %3, align 4
  %88 = add nsw i32 %87, 1
  store i32 %88, i32* %3, align 4
  br label %72

89:                                               ; preds = %84
  %90 = load i32, i32* %3, align 4
  %91 = load i32, i32* %4, align 4
  %92 = icmp eq i32 %90, %91
  br i1 %92, label %93, label %95

93:                                               ; preds = %89
  %94 = call i32 (i8*, ...) @printf(i8* getelementptr inbounds ([3 x i8], [3 x i8]* @.str.2, i64 0, i64 0))
  br label %101

95:                                               ; preds = %89
  %96 = load i32, i32* %3, align 4
  %97 = sext i32 %96 to i64
  %98 = getelementptr inbounds [301 x i32], [301 x i32]* %2, i64 0, i64 %97
  %99 = load i32, i32* %98, align 4
  %100 = call i32 (i8*, ...) @printf(i8* getelementptr inbounds ([3 x i8], [3 x i8]* @.str, i64 0, i64 0), i32 %99)
  br label %101

101:                                              ; preds = %95, %93
  ret i32 0
}

; Function Attrs: argmemonly nounwind willreturn
declare void @llvm.memset.p0i8.i64(i8* nocapture writeonly, i8, i64, i1 immarg) #1

declare dso_local i32 @__isoc99_scanf(i8*, ...) #2

declare dso_local i32 @printf(i8*, ...) #2


!llvm.module.flags = !{!0}
!llvm.ident = !{!1}

!0 = !{i32 1, !"wchar_size", i32 4}
!1 = !{!"clang version 10.0.0-4ubuntu1 "}
